; Function Attrs: nounwind uwtable
define ptr @l_Lean_Meta_forallBoundedTelescope___at_Lean_Meta_MatcherApp_transform___spec__10___rarg(ptr noundef %0, ptr noundef %1, ptr readnone captures(none) %2, ptr noundef %3, ptr noundef %4, ptr noundef %5, i8 noundef zeroext %6) local_unnamed_addr #1 {
  %8 = getelementptr inbounds nuw i8, ptr %1, i64 16
  %9 = load ptr, ptr %8, align 8, !tbaa !4
  %10 = ptrtoint ptr %9 to i64
  %11 = and i64 %10, 1
  %.not = icmp eq i64 %11, 0
  br i1 %.not, label %12, label %lean_inc.exit24

12:                                               ; preds = %7
  %.val.i = load i32, ptr %9, align 4, !tbaa !8
  %13 = icmp sgt i32 %.val.i, 0
  br i1 %13, label %14, label %16, !prof !11

14:                                               ; preds = %12
  %15 = add nuw i32 %.val.i, 1
  store i32 %15, ptr %9, align 4, !tbaa !8
  br label %lean_inc.exit24

16:                                               ; preds = %12
  %.not.i28 = icmp eq i32 %.val.i, 0
  br i1 %.not.i28, label %lean_inc.exit24, label %17

17:                                               ; preds = %16
  tail call void @lean_inc_ref_cold(ptr noundef nonnull %9) #4
  br label %lean_inc.exit24

lean_inc.exit24:                                  ; preds = %17, %16, %14, %7
  %18 = ptrtoint ptr %1 to i64
  %19 = and i64 %18, 1
  %.not35 = icmp eq i64 %19, 0
  br i1 %.not35, label %20, label %lean_dec.exit25

20:                                               ; preds = %lean_inc.exit24
  %21 = load i32, ptr %1, align 4, !tbaa !8
  %22 = icmp sgt i32 %21, 1
  br i1 %22, label %23, label %25, !prof !11

23:                                               ; preds = %20
  %24 = add nsw i32 %21, -1
  store i32 %24, ptr %1, align 4, !tbaa !8
  br label %lean_dec.exit25

25:                                               ; preds = %20
  %.not.i = icmp eq i32 %21, 0
  br i1 %.not.i, label %lean_dec.exit25, label %26

26:                                               ; preds = %25
  tail call void @lean_dec_ref_cold(ptr noundef nonnull %1) #4
  br label %lean_dec.exit25

lean_dec.exit25:                                  ; preds = %26, %25, %23, %lean_inc.exit24
  tail call void @lean_inc_heartbeat() #4
  %27 = tail call noalias ptr @mi_malloc_small(i64 noundef 56) #4
  %28 = icmp eq ptr %27, null
  br i1 %28, label %29, label %lean_alloc_closure.exit

29:                                               ; preds = %lean_dec.exit25
  tail call void @lean_internal_panic_out_of_memory() #5
  unreachable

lean_alloc_closure.exit:                          ; preds = %lean_dec.exit25
  %30 = zext i8 %6 to i64
  %31 = shl nuw nsw i64 %30, 1
  %32 = or disjoint i64 %31, 1
  %33 = inttoptr i64 %32 to ptr
  %34 = getelementptr inbounds nuw i8, ptr %27, i64 4
  store i32 1, ptr %27, align 4, !tbaa !8
  store i32 -184549320, ptr %34, align 4
  %35 = getelementptr inbounds nuw i8, ptr %27, i64 8
  store ptr @l_Lean_Meta_forallBoundedTelescope___at_Lean_Meta_MatcherApp_transform___spec__6___rarg___lambda__1___boxed, ptr %35, align 8, !tbaa !4
  %36 = getelementptr inbounds nuw i8, ptr %27, i64 16
  store i16 10, ptr %36, align 8, !tbaa !15
  %37 = getelementptr inbounds nuw i8, ptr %27, i64 18
  store i16 4, ptr %37, align 2, !tbaa !15
  %38 = getelementptr inbounds nuw i8, ptr %27, i64 24
  store ptr %5, ptr %38, align 8, !tbaa !4
  %39 = getelementptr inbounds nuw i8, ptr %27, i64 32
  store ptr %3, ptr %39, align 8, !tbaa !4
  %40 = getelementptr inbounds nuw i8, ptr %27, i64 40
  store ptr %4, ptr %40, align 8, !tbaa !4
  %41 = getelementptr inbounds nuw i8, ptr %27, i64 48
  store ptr %33, ptr %41, align 8, !tbaa !4
  %42 = getelementptr inbounds nuw i8, ptr %0, i64 8
  %43 = load ptr, ptr %42, align 8, !tbaa !4
  %44 = ptrtoint ptr %43 to i64
  %45 = and i64 %44, 1
  %.not36 = icmp eq i64 %45, 0
  br i1 %.not36, label %46, label %lean_inc.exit23

46:                                               ; preds = %lean_alloc_closure.exit
  %.val.i29 = load i32, ptr %43, align 4, !tbaa !8
  %47 = icmp sgt i32 %.val.i29, 0
  br i1 %47, label %48, label %50, !prof !11

48:                                               ; preds = %46
  %49 = add nuw i32 %.val.i29, 1
  store i32 %49, ptr %43, align 4, !tbaa !8
  br label %lean_inc.exit23

50:                                               ; preds = %46
  %.not.i30 = icmp eq i32 %.val.i29, 0
  br i1 %.not.i30, label %lean_inc.exit23, label %51

51:                                               ; preds = %50
  tail call void @lean_inc_ref_cold(ptr noundef nonnull %43) #4
  br label %lean_inc.exit23

lean_inc.exit23:                                  ; preds = %51, %50, %48, %lean_alloc_closure.exit
  %52 = tail call ptr @lean_apply_2(ptr noundef %43, ptr noundef nonnull inttoptr (i64 1 to ptr), ptr noundef nonnull %27) #4
  %53 = getelementptr inbounds nuw i8, ptr %0, i64 16
  %54 = load ptr, ptr %53, align 8, !tbaa !4
  %55 = ptrtoint ptr %54 to i64
  %56 = and i64 %55, 1
  %.not37 = icmp eq i64 %56, 0
  br i1 %.not37, label %57, label %lean_inc.exit

57:                                               ; preds = %lean_inc.exit23
  %.val.i32 = load i32, ptr %54, align 4, !tbaa !8
  %58 = icmp sgt i32 %.val.i32, 0
  br i1 %58, label %59, label %61, !prof !11

59:                                               ; preds = %57
  %60 = add nuw i32 %.val.i32, 1
  store i32 %60, ptr %54, align 4, !tbaa !8
  br label %lean_inc.exit

61:                                               ; preds = %57
  %.not.i33 = icmp eq i32 %.val.i32, 0
  br i1 %.not.i33, label %lean_inc.exit, label %62

62:                                               ; preds = %61
  tail call void @lean_inc_ref_cold(ptr noundef nonnull %54) #4
  br label %lean_inc.exit

lean_inc.exit:                                    ; preds = %62, %61, %59, %lean_inc.exit23
  %63 = ptrtoint ptr %0 to i64
  %64 = and i64 %63, 1
  %.not38 = icmp eq i64 %64, 0
  br i1 %.not38, label %65, label %lean_dec.exit

65:                                               ; preds = %lean_inc.exit
  %66 = load i32, ptr %0, align 4, !tbaa !8
  %67 = icmp sgt i32 %66, 1
  br i1 %67, label %68, label %70, !prof !11

68:                                               ; preds = %65
  %69 = add nsw i32 %66, -1
  store i32 %69, ptr %0, align 4, !tbaa !8
  br label %lean_dec.exit

70:                                               ; preds = %65
  %.not.i26 = icmp eq i32 %66, 0
  br i1 %.not.i26, label %lean_dec.exit, label %71

71:                                               ; preds = %70
  tail call void @lean_dec_ref_cold(ptr noundef nonnull %0) #4
  br label %lean_dec.exit

lean_dec.exit:                                    ; preds = %71, %70, %68, %lean_inc.exit
  %72 = tail call ptr @lean_apply_1(ptr noundef %54, ptr noundef nonnull inttoptr (i64 1 to ptr)) #4
  %73 = tail call ptr @lean_apply_4(ptr noundef %9, ptr noundef nonnull inttoptr (i64 1 to ptr), ptr noundef nonnull inttoptr (i64 1 to ptr), ptr noundef %52, ptr noundef %72) #4
  ret ptr %73
}